; Function Attrs: nofree nounwind memory(readwrite, argmem: read) uwtable
define noalias noundef ptr @Ssc_GiaGetCareMask(ptr noundef readonly captures(none) %0) local_unnamed_addr #6 {
  %2 = getelementptr inbounds nuw i8, ptr %0, i64 848
  %3 = load ptr, ptr %2, align 8, !tbaa !35
  %4 = getelementptr i8, ptr %3, i64 4
  %.val.i = load i32, ptr %4, align 4, !tbaa !3
  %5 = getelementptr i8, ptr %0, i64 16
  %.val2.i = load i32, ptr %5, align 8, !tbaa !39
  %6 = getelementptr i8, ptr %0, i64 64
  %.val3.i = load ptr, ptr %6, align 8, !tbaa !36
  %7 = getelementptr i8, ptr %.val3.i, i64 4
  %.val3.val.i = load i32, ptr %7, align 4, !tbaa !37
  %8 = sub nsw i32 %.val3.val.i, %.val2.i
  %9 = sdiv i32 %.val.i, %8
  %10 = sext i32 %9 to i64
  %11 = shl nsw i64 %10, 3
  %12 = tail call noalias ptr @malloc(i64 noundef %11) #16
  tail call void @llvm.memset.p0.i64(ptr align 1 %12, i8 -1, i64 %11, i1 false)
  %13 = getelementptr i8, ptr %0, i64 72
  %.val14 = load ptr, ptr %13, align 8, !tbaa !45
  %14 = getelementptr i8, ptr %.val14, i64 4
  %.val14.val = load i32, ptr %14, align 4, !tbaa !37
  %15 = sub nsw i32 %.val14.val, %.val2.i
  %16 = icmp sgt i32 %15, 0
  br i1 %16, label %.lr.ph, label %.critedge

.lr.ph:                                           ; preds = %1
  %17 = getelementptr i8, ptr %0, i64 32
  %.val15 = load ptr, ptr %17, align 8, !tbaa !46
  %.not = icmp eq ptr %.val15, null
  %wide.trip.count.i = zext nneg i32 %9 to i64
  br i1 %.not, label %.critedge, label %.lr.ph.split

.lr.ph.split:                                     ; preds = %.lr.ph
  %18 = icmp sgt i32 %9, 0
  %19 = getelementptr inbounds nuw i8, ptr %0, i64 832
  %20 = getelementptr i8, ptr %.val14, i64 8
  %.val16.val = load ptr, ptr %20, align 8, !tbaa !40
  %21 = load ptr, ptr %19, align 8, !tbaa !47
  %22 = getelementptr i8, ptr %21, i64 8
  %.val.i.i = load ptr, ptr %22, align 8, !tbaa !10
  br i1 %18, label %.lr.ph.preheader.i.us.preheader, label %.critedge

.lr.ph.preheader.i.us.preheader:                  ; preds = %.lr.ph.split
  %wide.trip.count = zext nneg i32 %15 to i64
  br label %.lr.ph.preheader.i.us

.lr.ph.preheader.i.us:                            ; preds = %.lr.ph.preheader.i.us.preheader, %Ssc_SimAnd.exit.loopexit.us
  %indvars.iv = phi i64 [ 0, %.lr.ph.preheader.i.us.preheader ], [ %indvars.iv.next, %Ssc_SimAnd.exit.loopexit.us ]
  %23 = getelementptr inbounds nuw i32, ptr %.val16.val, i64 %indvars.iv
  %24 = load i32, ptr %23, align 4, !tbaa !41
  %25 = mul nsw i32 %24, %9
  %26 = sext i32 %25 to i64
  %27 = getelementptr inbounds i64, ptr %.val.i.i, i64 %26
  br label %.lr.ph.i.us

.lr.ph.i.us:                                      ; preds = %.lr.ph.i.us, %.lr.ph.preheader.i.us
  %indvars.iv.i.us = phi i64 [ 0, %.lr.ph.preheader.i.us ], [ %indvars.iv.next.i.us, %.lr.ph.i.us ]
  %28 = getelementptr inbounds nuw i64, ptr %12, i64 %indvars.iv.i.us
  %29 = load i64, ptr %28, align 8, !tbaa !38
  %30 = getelementptr inbounds nuw i64, ptr %27, i64 %indvars.iv.i.us
  %31 = load i64, ptr %30, align 8, !tbaa !38
  %32 = and i64 %31, %29
  store i64 %32, ptr %28, align 8, !tbaa !38
  %indvars.iv.next.i.us = add nuw nsw i64 %indvars.iv.i.us, 1
  %exitcond.not.i.us = icmp eq i64 %indvars.iv.next.i.us, %wide.trip.count.i
  br i1 %exitcond.not.i.us, label %Ssc_SimAnd.exit.loopexit.us, label %.lr.ph.i.us, !llvm.loop !48

Ssc_SimAnd.exit.loopexit.us:                      ; preds = %.lr.ph.i.us
  %indvars.iv.next = add nuw nsw i64 %indvars.iv, 1
  %exitcond.not = icmp eq i64 %indvars.iv.next, %wide.trip.count
  br i1 %exitcond.not, label %.critedge, label %.lr.ph.preheader.i.us, !llvm.loop !49

.critedge:                                        ; preds = %Ssc_SimAnd.exit.loopexit.us, %.lr.ph.split, %.lr.ph, %1
  ret ptr %12
}